; Function Attrs: nounwind uwtable
define ptr @l_Std_Time_Internal_Bounded_LE_addTop___rarg___boxed(ptr noundef %0, ptr noundef %1, ptr readnone captures(none) %2) #1 {
  %4 = ptrtoint ptr %0 to i64
  %5 = and i64 %4, 1
  %.not.i.i = icmp eq i64 %5, 0
  %.pre12 = ptrtoint ptr %1 to i64
  %.pre = and i64 %.pre12, 1
  %6 = icmp eq i64 %.pre, 0
  br i1 %.not.i.i, label %l_Std_Time_Internal_Bounded_LE_addTop___rarg.exit, label %7, !prof !10

7:                                                ; preds = %3
  br i1 %6, label %l_Std_Time_Internal_Bounded_LE_addTop___rarg.exit.thread16, label %9, !prof !10

l_Std_Time_Internal_Bounded_LE_addTop___rarg.exit.thread16: ; preds = %7
  %8 = tail call ptr @lean_int_big_add(ptr noundef %0, ptr noundef %1) #5
  br label %25

9:                                                ; preds = %7
  %10 = shl i64 %4, 31
  %11 = ashr i64 %10, 32
  %12 = shl i64 %.pre12, 31
  %13 = ashr i64 %12, 32
  %14 = add nsw i64 %13, %11
  %15 = add nsw i64 %14, 2147483648
  %16 = icmp ult i64 %15, 4294967296
  br i1 %16, label %17, label %22, !prof !9

17:                                               ; preds = %9
  %18 = shl nsw i64 %14, 1
  %19 = and i64 %18, 8589934590
  %20 = or disjoint i64 %19, 1
  %21 = inttoptr i64 %20 to ptr
  br label %lean_dec.exit

22:                                               ; preds = %9
  %23 = tail call ptr @lean_big_int64_to_int(i64 noundef range(i64 -4611686016279904256, 4611686018427387905) %14) #5
  br label %lean_dec.exit

l_Std_Time_Internal_Bounded_LE_addTop___rarg.exit: ; preds = %3
  %24 = tail call ptr @lean_int_big_add(ptr noundef %0, ptr noundef %1) #5
  br i1 %6, label %25, label %lean_dec.exit6.thread

25:                                               ; preds = %l_Std_Time_Internal_Bounded_LE_addTop___rarg.exit.thread16, %l_Std_Time_Internal_Bounded_LE_addTop___rarg.exit
  %26 = phi ptr [ %8, %l_Std_Time_Internal_Bounded_LE_addTop___rarg.exit.thread16 ], [ %24, %l_Std_Time_Internal_Bounded_LE_addTop___rarg.exit ]
  %27 = load i32, ptr %1, align 4, !tbaa !4
  %28 = icmp sgt i32 %27, 1
  br i1 %28, label %29, label %31, !prof !9

29:                                               ; preds = %25
  %30 = add nsw i32 %27, -1
  store i32 %30, ptr %1, align 4, !tbaa !4
  br label %lean_dec.exit6

31:                                               ; preds = %25
  %.not.i = icmp eq i32 %27, 0
  br i1 %.not.i, label %lean_dec.exit6, label %32

32:                                               ; preds = %31
  tail call void @lean_dec_ref_cold(ptr noundef nonnull %1) #5
  br label %lean_dec.exit6

lean_dec.exit6:                                   ; preds = %32, %31, %29
  br i1 %.not.i.i, label %lean_dec.exit6.thread, label %lean_dec.exit

lean_dec.exit6.thread:                            ; preds = %l_Std_Time_Internal_Bounded_LE_addTop___rarg.exit, %lean_dec.exit6
  %.0.i.i1520 = phi ptr [ %26, %lean_dec.exit6 ], [ %24, %l_Std_Time_Internal_Bounded_LE_addTop___rarg.exit ]
  %33 = load i32, ptr %0, align 4, !tbaa !4
  %34 = icmp sgt i32 %33, 1
  br i1 %34, label %35, label %37, !prof !9

35:                                               ; preds = %lean_dec.exit6.thread
  %36 = add nsw i32 %33, -1
  store i32 %36, ptr %0, align 4, !tbaa !4
  br label %lean_dec.exit

37:                                               ; preds = %lean_dec.exit6.thread
  %.not.i7 = icmp eq i32 %33, 0
  br i1 %.not.i7, label %lean_dec.exit, label %38

38:                                               ; preds = %37
  tail call void @lean_dec_ref_cold(ptr noundef nonnull %0) #5
  br label %lean_dec.exit

lean_dec.exit:                                    ; preds = %17, %22, %38, %37, %35, %lean_dec.exit6
  %.0.i.i1519 = phi ptr [ %.0.i.i1520, %38 ], [ %.0.i.i1520, %37 ], [ %.0.i.i1520, %35 ], [ %26, %lean_dec.exit6 ], [ %23, %22 ], [ %21, %17 ]
  ret ptr %.0.i.i1519
}